; Function Attrs: nounwind uwtable
define internal i32 @trans_cb(i32 noundef %0, i32 noundef %1, ptr noundef %2) #0 {
  %4 = tail call ptr @BN_GENCB_get_arg(ptr noundef %2) #6
  %5 = getelementptr inbounds nuw i8, ptr %4, i64 104
  %6 = load ptr, ptr %5, align 8, !tbaa !32
  store i32 %0, ptr %6, align 4, !tbaa !49
  %7 = getelementptr inbounds nuw i8, ptr %6, i64 4
  store i32 %1, ptr %7, align 4, !tbaa !49
  %8 = getelementptr inbounds nuw i8, ptr %4, i64 96
  %9 = load ptr, ptr %8, align 8, !tbaa !50
  %10 = tail call i32 %9(ptr noundef %4) #6
  ret i32 %10
}